; Function Attrs: mustprogress uwtable
define internal void @"_ZNSt17_Function_handlerIFvRSoPvEZN3euf6solverC1ER11ast_managerRN3sat16sat_internalizerERK10params_refE3$_0E9_M_invokeERKSt9_Any_dataS0_OS1_"(ptr nocapture noundef nonnull readonly align 8 dereferenceable(16) %__functor, ptr noundef nonnull align 8 dereferenceable(8) %__args, ptr nocapture noundef nonnull readonly align 8 dereferenceable(8) %__args1) #3 align 2 {
entry:
  %__args1.val = load ptr, ptr %__args1, align 8
  %0 = ptrtoint ptr %__args1.val to i64
  %and.i.i.i.i.i = and i64 %0, 7
  %cmp.i.i.i.i.i = icmp eq i64 %and.i.i.i.i.i, 1
  br i1 %cmp.i.i.i.i.i, label %if.then.i.i.i.i, label %if.else.i.i.i.i

if.then.i.i.i.i:                                  ; preds = %entry
  %call2.i.i.i.i = tail call noundef nonnull align 8 dereferenceable(8) ptr @_ZStlsISt11char_traitsIcEERSt13basic_ostreamIcT_ES5_PKc(ptr noundef nonnull align 8 dereferenceable(8) %__args, ptr noundef nonnull @.str.22)
  %1 = trunc i64 %0 to i32
  %.b = load i1, ptr @_ZN3satL12null_literalE.0, align 4
  %cmp.i.i.i.i.i.i1 = icmp ugt i32 %1, 15
  %cmp.i.i.i.i.i.i.not = or i1 %cmp.i.i.i.i.i.i1, %.b
  br i1 %cmp.i.i.i.i.i.i.not, label %if.else.i.i.i.i.i, label %if.then.i.i.i.i.i

if.then.i.i.i.i.i:                                ; preds = %if.then.i.i.i.i
  %call1.i.i.i.i.i = tail call noundef nonnull align 8 dereferenceable(8) ptr @_ZStlsISt11char_traitsIcEERSt13basic_ostreamIcT_ES5_PKc(ptr noundef nonnull align 8 dereferenceable(8) %call2.i.i.i.i, ptr noundef nonnull @.str.41)
  br label %"_ZSt10__invoke_rIvRZN3euf6solverC1ER11ast_managerRN3sat16sat_internalizerERK10params_refE3$_0JRSoPvEENSt9enable_ifIX16is_invocable_r_vIT_T0_DpT1_EESF_E4typeEOSG_DpOSH_.exit"

if.else.i.i.i.i.i:                                ; preds = %if.then.i.i.i.i
  %2 = and i32 %1, 16
  %tobool.i.not.i.i.i.i.i = icmp eq i32 %2, 0
  %cond.i.i.i.i.i = select i1 %tobool.i.not.i.i.i.i.i, ptr @.str.19, ptr @.str.43
  %call3.i.i.i.i.i = tail call noundef nonnull align 8 dereferenceable(8) ptr @_ZStlsISt11char_traitsIcEERSt13basic_ostreamIcT_ES5_PKc(ptr noundef nonnull align 8 dereferenceable(8) %call2.i.i.i.i, ptr noundef nonnull %cond.i.i.i.i.i)
  %shr.i.i.i.i.i.i = lshr i32 %1, 5
  %call5.i.i.i.i.i = tail call noundef nonnull align 8 dereferenceable(8) ptr @_ZNSolsEj(ptr noundef nonnull align 8 dereferenceable(8) %call3.i.i.i.i.i, i32 noundef %shr.i.i.i.i.i.i)
  br label %"_ZSt10__invoke_rIvRZN3euf6solverC1ER11ast_managerRN3sat16sat_internalizerERK10params_refE3$_0JRSoPvEENSt9enable_ifIX16is_invocable_r_vIT_T0_DpT1_EESF_E4typeEOSG_DpOSH_.exit"

if.else.i.i.i.i:                                  ; preds = %entry
  %call.val = load ptr, ptr %__functor, align 8
  %and.i4.i.i.i.i = and i64 %0, -8
  %vtable.i.i.i.i = load ptr, ptr %call.val, align 8
  %vfn.i.i.i.i = getelementptr inbounds i8, ptr %vtable.i.i.i.i, i64 232
  %3 = load ptr, ptr %vfn.i.i.i.i, align 8
  %call7.i.i.i.i = tail call noundef nonnull align 8 dereferenceable(8) ptr %3(ptr noundef nonnull align 8 dereferenceable(9136) %call.val, ptr noundef nonnull align 8 dereferenceable(8) %__args, i64 noundef %and.i4.i.i.i.i)
  br label %"_ZSt10__invoke_rIvRZN3euf6solverC1ER11ast_managerRN3sat16sat_internalizerERK10params_refE3$_0JRSoPvEENSt9enable_ifIX16is_invocable_r_vIT_T0_DpT1_EESF_E4typeEOSG_DpOSH_.exit"

"_ZSt10__invoke_rIvRZN3euf6solverC1ER11ast_managerRN3sat16sat_internalizerERK10params_refE3$_0JRSoPvEENSt9enable_ifIX16is_invocable_r_vIT_T0_DpT1_EESF_E4typeEOSG_DpOSH_.exit": ; preds = %if.then.i.i.i.i.i, %if.else.i.i.i.i.i, %if.else.i.i.i.i
  ret void
}